; Function Attrs: nounwind uwtable
define i32 @pmix_bfrops_base_unpack_bo(ptr noundef %0, ptr noundef %1, ptr noundef %2, ptr noundef readonly captures(none) %3, i16 noundef zeroext %4) local_unnamed_addr #0 {
  %6 = alloca i32, align 4
  call void @llvm.lifetime.start.p0(i64 4, ptr nonnull %6) #10
  %7 = load i32, ptr getelementptr inbounds nuw (i8, ptr @pmix_bfrops_base_framework, i64 76), align 4, !tbaa !7
  %or.cond = icmp ult i32 %7, 64
  br i1 %or.cond, label %8, label %15

8:                                                ; preds = %5
  %9 = zext nneg i32 %7 to i64
  %10 = getelementptr inbounds nuw [0 x %struct.pmix_output_desc_t], ptr @pmix_output_info, i64 0, i64 %9, i32 2
  %11 = load i32, ptr %10, align 4, !tbaa !19
  %12 = icmp sgt i32 %11, 19
  br i1 %12, label %13, label %15

13:                                               ; preds = %8
  %14 = load i32, ptr %3, align 4, !tbaa !3
  tail call void (i32, ptr, ...) @pmix_output(i32 noundef %7, ptr noundef nonnull @.str.26, i32 noundef %14) #10
  br label %15

15:                                               ; preds = %13, %8, %5
  %16 = load i32, ptr %3, align 4, !tbaa !3
  %17 = getelementptr inbounds nuw i8, ptr %0, i64 152
  %18 = icmp sgt i32 %16, 0
  br i1 %18, label %.lr.ph, label %.thread

.lr.ph:                                           ; preds = %15
  %19 = getelementptr inbounds nuw i8, ptr %0, i64 128
  %wide.trip.count = zext nneg i32 %16 to i64
  br label %20

20:                                               ; preds = %.lr.ph, %48
  %indvars.iv = phi i64 [ 0, %.lr.ph ], [ %indvars.iv.next, %48 ]
  %21 = getelementptr inbounds nuw %struct.pmix_byte_object, ptr %2, i64 %indvars.iv
  call void @llvm.memset.p0.i64(ptr noundef nonnull align 8 dereferenceable(16) %21, i8 0, i64 16, i1 false)
  store i32 1, ptr %6, align 4, !tbaa !3
  %22 = load i32, ptr %19, align 8, !tbaa !26
  %.not.i = icmp sgt i32 %22, 4
  br i1 %.not.i, label %pmix_pointer_array_get_item.exit, label %.thread, !prof !29

pmix_pointer_array_get_item.exit:                 ; preds = %20
  %23 = load ptr, ptr %17, align 8, !tbaa !30
  %24 = getelementptr inbounds nuw i8, ptr %23, i64 32
  %25 = load ptr, ptr %24, align 8, !tbaa !31
  %26 = icmp eq ptr %25, null
  br i1 %26, label %.thread, label %27

27:                                               ; preds = %pmix_pointer_array_get_item.exit
  %28 = getelementptr inbounds nuw i8, ptr %25, i64 144
  %29 = load ptr, ptr %28, align 8, !tbaa !32
  %30 = getelementptr inbounds nuw i8, ptr %21, i64 8
  %31 = call i32 %29(ptr noundef nonnull %0, ptr noundef %1, ptr noundef nonnull %30, ptr noundef nonnull %6, i16 noundef zeroext 4) #10
  %.not = icmp eq i32 %31, 0
  br i1 %.not, label %32, label %.thread

32:                                               ; preds = %27
  %33 = load i64, ptr %30, align 8, !tbaa !104
  %.not43 = icmp eq i64 %33, 0
  br i1 %.not43, label %48, label %34

34:                                               ; preds = %32
  %35 = call noalias ptr @malloc(i64 noundef %33) #12
  store ptr %35, ptr %21, align 8, !tbaa !106
  %36 = icmp eq ptr %35, null
  br i1 %36, label %.thread, label %37

37:                                               ; preds = %34
  %38 = trunc i64 %33 to i32
  store i32 %38, ptr %6, align 4, !tbaa !3
  %39 = load i32, ptr %19, align 8, !tbaa !26
  %.not.i45 = icmp sgt i32 %39, 2
  br i1 %.not.i45, label %pmix_pointer_array_get_item.exit47, label %.thread, !prof !29

pmix_pointer_array_get_item.exit47:               ; preds = %37
  %40 = load ptr, ptr %17, align 8, !tbaa !30
  %41 = getelementptr inbounds nuw i8, ptr %40, i64 16
  %42 = load ptr, ptr %41, align 8, !tbaa !31
  %43 = icmp eq ptr %42, null
  br i1 %43, label %.thread, label %44

44:                                               ; preds = %pmix_pointer_array_get_item.exit47
  %45 = getelementptr inbounds nuw i8, ptr %42, i64 144
  %46 = load ptr, ptr %45, align 8, !tbaa !32
  %47 = call i32 %46(ptr noundef nonnull %0, ptr noundef %1, ptr noundef nonnull %35, ptr noundef nonnull %6, i16 noundef zeroext 2) #10
  %.not44 = icmp eq i32 %47, 0
  br i1 %.not44, label %48, label %.thread

48:                                               ; preds = %32, %44
  %indvars.iv.next = add nuw nsw i64 %indvars.iv, 1
  %exitcond.not = icmp eq i64 %indvars.iv.next, %wide.trip.count
  br i1 %exitcond.not, label %.thread, label %20, !llvm.loop !107

.thread:                                          ; preds = %27, %34, %44, %48, %pmix_pointer_array_get_item.exit, %20, %pmix_pointer_array_get_item.exit47, %37, %15
  %.0 = phi i32 [ 0, %15 ], [ -16, %37 ], [ -16, %pmix_pointer_array_get_item.exit47 ], [ -16, %20 ], [ -16, %pmix_pointer_array_get_item.exit ], [ 0, %48 ], [ %47, %44 ], [ -32, %34 ], [ %31, %27 ]
  call void @llvm.lifetime.end.p0(i64 4, ptr nonnull %6) #10
  ret i32 %.0
}